target datalayout = "e-m:e-p270:32:32-p271:32:32-p272:64:64-i64:64-i128:128-f80:128-n8:16:32:64-S128"
target triple = "x86_64-pc-linux-gnu"

%struct.acttab = type { i32, i32, ptr, ptr, i32, i32, i32, i32, i32, i32, i32 }
%struct.lookahead_action = type { i32, i32 }

; Function Attrs: nounwind null_pointer_is_valid sspstrong uwtable
define hidden i32 @acttab_action_size(ptr noundef %0) #2 {
  %2 = alloca ptr, align 8
  %3 = alloca i32, align 4
  store ptr %0, ptr %2, align 8
  call void @llvm.lifetime.start.p0(i64 4, ptr %3) #18
  %4 = load ptr, ptr %2, align 8
  %5 = getelementptr inbounds nuw %struct.acttab, ptr %4, i32 0, i32 0
  %6 = load i32, ptr %5, align 8
  store i32 %6, ptr %3, align 4
  br label %7

7:                                                ; preds = %23, %1
  %8 = load i32, ptr %3, align 4
  %9 = icmp sgt i32 %8, 0
  br i1 %9, label %10, label %21

10:                                               ; preds = %7
  %11 = load ptr, ptr %2, align 8
  %12 = getelementptr inbounds nuw %struct.acttab, ptr %11, i32 0, i32 2
  %13 = load ptr, ptr %12, align 8
  %14 = load i32, ptr %3, align 4
  %15 = sub i32 %14, 1
  %16 = sext i32 %15 to i64
  %17 = getelementptr %struct.lookahead_action, ptr %13, i64 %16
  %18 = getelementptr inbounds nuw %struct.lookahead_action, ptr %17, i32 0, i32 0
  %19 = load i32, ptr %18, align 4
  %20 = icmp slt i32 %19, 0
  br label %21

21:                                               ; preds = %10, %7
  %22 = phi i1 [ false, %7 ], [ %20, %10 ]
  br i1 %22, label %23, label %26

23:                                               ; preds = %21
  %24 = load i32, ptr %3, align 4
  %25 = add i32 %24, -1
  store i32 %25, ptr %3, align 4
  br label %7, !llvm.loop !17

26:                                               ; preds = %21
  %27 = load i32, ptr %3, align 4
  call void @llvm.lifetime.end.p0(i64 4, ptr %3) #18
  ret i32 %27
}