; Function Attrs: nofree norecurse nosync nounwind null_pointer_is_valid sspstrong memory(read, inaccessiblemem: none) uwtable
define hidden i32 @acttab_action_size(ptr noundef readonly captures(none) %0) local_unnamed_addr #8 {
  %2 = load i32, ptr %0, align 8
  %3 = icmp sgt i32 %2, 0
  br i1 %3, label %.lr.ph, label %.critedge

.lr.ph:                                           ; preds = %1
  %4 = getelementptr inbounds nuw i8, ptr %0, i64 8
  %5 = load ptr, ptr %4, align 8
  %invariant.gep = getelementptr i8, ptr %5, i64 -8
  br label %6

6:                                                ; preds = %.lr.ph, %10
  %.05 = phi i32 [ %2, %.lr.ph ], [ %11, %10 ]
  %7 = zext nneg i32 %.05 to i64
  %gep = getelementptr %struct.lookahead_action, ptr %invariant.gep, i64 %7
  %8 = load i32, ptr %gep, align 4
  %9 = icmp slt i32 %8, 0
  br i1 %9, label %10, label %.critedge

10:                                               ; preds = %6
  %11 = add nsw i32 %.05, -1
  %12 = icmp sgt i32 %.05, 1
  br i1 %12, label %6, label %.critedge, !llvm.loop !17

.critedge:                                        ; preds = %6, %10, %1
  %.0.lcssa = phi i32 [ %2, %1 ], [ 0, %10 ], [ %.05, %6 ]
  ret i32 %.0.lcssa
}